target datalayout = "e-m:e-p270:32:32-p271:32:32-p272:64:64-i64:64-i128:128-f80:128-n8:16:32:64-S128"
target triple = "x86_64-pc-linux-gnu"

@.str.44 = private unnamed_addr constant [9 x i8] c"%12.4e \0A\00", align 1
@.str.45 = private unnamed_addr constant [48 x i8] c"                                Sensitivity 1  \00", align 1
@.str.46 = private unnamed_addr constant [48 x i8] c"                                Sensitivity 2  \00", align 1

; Function Attrs: nounwind uwtable
define internal void @PrintOutputS(ptr noundef %0) #0 {
  %2 = alloca ptr, align 8
  store ptr %0, ptr %2, align 8, !tbaa !18
  %3 = call i32 (ptr, ...) @printf(ptr noundef @.str.45)
  %4 = load ptr, ptr %2, align 8, !tbaa !18
  %5 = getelementptr inbounds ptr, ptr %4, i64 0
  %6 = load ptr, ptr %5, align 8, !tbaa !12
  %7 = call double @N_VMaxNorm(ptr noundef %6)
  %8 = call i32 (ptr, ...) @printf(ptr noundef @.str.44, double noundef %7)
  %9 = call i32 (ptr, ...) @printf(ptr noundef @.str.46)
  %10 = load ptr, ptr %2, align 8, !tbaa !18
  %11 = getelementptr inbounds ptr, ptr %10, i64 1
  %12 = load ptr, ptr %11, align 8, !tbaa !12
  %13 = call double @N_VMaxNorm(ptr noundef %12)
  %14 = call i32 (ptr, ...) @printf(ptr noundef @.str.44, double noundef %13)
  ret void
}