; Function Attrs: nounwind uwtable
define internal fastcc void @PrintOutputS(ptr noundef readonly captures(none) %0) unnamed_addr #0 {
  %2 = tail call i32 (ptr, ...) @printf(ptr noundef nonnull dereferenceable(1) @.str.45)
  %3 = load ptr, ptr %0, align 8, !tbaa !22
  %4 = tail call double @N_VMaxNorm(ptr noundef %3) #11
  %5 = tail call i32 (ptr, ...) @printf(ptr noundef nonnull dereferenceable(1) @.str.44, double noundef %4)
  %6 = tail call i32 (ptr, ...) @printf(ptr noundef nonnull dereferenceable(1) @.str.46)
  %7 = getelementptr inbounds nuw i8, ptr %0, i64 8
  %8 = load ptr, ptr %7, align 8, !tbaa !22
  %9 = tail call double @N_VMaxNorm(ptr noundef %8) #11
  %10 = tail call i32 (ptr, ...) @printf(ptr noundef nonnull dereferenceable(1) @.str.44, double noundef %9)
  ret void
}